; ModuleID = '12/1607.c'
source_filename = "12/1607.c"
target datalayout = "e-m:e-p270:32:32-p271:32:32-p272:64:64-i64:64-f80:128-n8:16:32:64-S128"
target triple = "x86_64-pc-linux-gnu"

@.str = private unnamed_addr constant [3 x i8] c"%d\00", align 1
@.str.1 = private unnamed_addr constant [4 x i8] c"%d\0A\00", align 1

; Function Attrs: noinline nounwind uwtable
define dso_local void @swap(i32* %0, i32* %1) #0 {
  %3 = alloca i32*, align 8
  %4 = alloca i32*, align 8
  %5 = alloca i32, align 4
  store i32* %0, i32** %3, align 8
  store i32* %1, i32** %4, align 8
  %6 = load i32*, i32** %3, align 8
  %7 = load i32, i32* %6, align 4
  store i32 %7, i32* %5, align 4
  %8 = load i32*, i32** %4, align 8
  %9 = load i32, i32* %8, align 4
  %10 = load i32*, i32** %3, align 8
  store i32 %9, i32* %10, align 4
  %11 = load i32, i32* %5, align 4
  %12 = load i32*, i32** %4, align 8
  store i32 %11, i32* %12, align 4
  ret void
}

; Function Attrs: noinline nounwind uwtable
define dso_local i32 @find(i32* %0, i32 %1, i32 %2, i32 %3) #0 {
  %5 = alloca i32, align 4
  %6 = alloca i32*, align 8
  %7 = alloca i32, align 4
  %8 = alloca i32, align 4
  %9 = alloca i32, align 4
  %10 = alloca i32, align 4
  store i32* %0, i32** %6, align 8
  store i32 %1, i32* %7, align 4
  store i32 %2, i32* %8, align 4
  store i32 %3, i32* %9, align 4
  %11 = load i32, i32* %8, align 4
  %12 = load i32, i32* %9, align 4
  %13 = icmp sgt i32 %11, %12
  br i1 %13, label %14, label %15

14:                                               ; preds = %4
  store i32 0, i32* %5, align 4
  br label %50

15:                                               ; preds = %4
  %16 = load i32, i32* %8, align 4
  %17 = load i32, i32* %9, align 4
  %18 = add nsw i32 %16, %17
  %19 = sdiv i32 %18, 2
  store i32 %19, i32* %10, align 4
  %20 = load i32*, i32** %6, align 8
  %21 = load i32, i32* %10, align 4
  %22 = sext i32 %21 to i64
  %23 = getelementptr inbounds i32, i32* %20, i64 %22
  %24 = load i32, i32* %23, align 4
  %25 = load i32, i32* %7, align 4
  %26 = icmp eq i32 %24, %25
  br i1 %26, label %27, label %28

27:                                               ; preds = %15
  store i32 1, i32* %5, align 4
  br label %50

28:                                               ; preds = %15
  %29 = load i32*, i32** %6, align 8
  %30 = load i32, i32* %10, align 4
  %31 = sext i32 %30 to i64
  %32 = getelementptr inbounds i32, i32* %29, i64 %31
  %33 = load i32, i32* %32, align 4
  %34 = load i32, i32* %7, align 4
  %35 = icmp sgt i32 %33, %34
  br i1 %35, label %36, label %43

36:                                               ; preds = %28
  %37 = load i32*, i32** %6, align 8
  %38 = load i32, i32* %7, align 4
  %39 = load i32, i32* %8, align 4
  %40 = load i32, i32* %10, align 4
  %41 = sub nsw i32 %40, 1
  %42 = call i32 @find(i32* %37, i32 %38, i32 %39, i32 %41)
  store i32 %42, i32* %5, align 4
  br label %50

43:                                               ; preds = %28
  %44 = load i32*, i32** %6, align 8
  %45 = load i32, i32* %7, align 4
  %46 = load i32, i32* %10, align 4
  %47 = add nsw i32 %46, 1
  %48 = load i32, i32* %9, align 4
  %49 = call i32 @find(i32* %44, i32 %45, i32 %47, i32 %48)
  store i32 %49, i32* %5, align 4
  br label %50

50:                                               ; preds = %43, %36, %27, %14
  %51 = load i32, i32* %5, align 4
  ret i32 %51
}

; Function Attrs: noinline nounwind uwtable
define dso_local i32 @main() #0 {
  %1 = alloca i32, align 4
  %2 = alloca i32, align 4
  %3 = alloca i32, align 4
  %4 = alloca i32, align 4
  %5 = alloca i32, align 4
  %6 = alloca [1000 x i32], align 16
  %7 = alloca i32, align 4
  store i32 0, i32* %1, align 4
  store i32 0, i32* %2, align 4
  store i32 0, i32* %3, align 4
  store i32 0, i32* %4, align 4
  store i32 0, i32* %5, align 4
  %8 = bitcast [1000 x i32]* %6 to i8*
  call void @llvm.memset.p0i8.i64(i8* align 16 %8, i8 0, i64 4000, i1 false)
  br label %9

9:                                                ; preds = %91, %0
  %10 = call i32 (i8*, ...) @__isoc99_scanf(i8* getelementptr inbounds ([3 x i8], [3 x i8]* @.str, i64 0, i64 0), i32* %5)
  %11 = load i32, i32* %5, align 4
  %12 = icmp ne i32 %11, -1
  br i1 %12, label %13, label %92

13:                                               ; preds = %9
  %14 = load i32, i32* %5, align 4
  %15 = icmp ne i32 %14, 0
  br i1 %15, label %16, label %52

16:                                               ; preds = %13
  %17 = load i32, i32* %5, align 4
  %18 = load i32, i32* %2, align 4
  %19 = add nsw i32 %18, 1
  store i32 %19, i32* %2, align 4
  %20 = sext i32 %18 to i64
  %21 = getelementptr inbounds [1000 x i32], [1000 x i32]* %6, i64 0, i64 %20
  store i32 %17, i32* %21, align 4
  %22 = load i32, i32* %2, align 4
  %23 = sub nsw i32 %22, 1
  store i32 %23, i32* %3, align 4
  br label %24

24:                                               ; preds = %48, %16
  %25 = load i32, i32* %3, align 4
  %26 = icmp sgt i32 %25, 0
  br i1 %26, label %27, label %38

27:                                               ; preds = %24
  %28 = load i32, i32* %3, align 4
  %29 = sext i32 %28 to i64
  %30 = getelementptr inbounds [1000 x i32], [1000 x i32]* %6, i64 0, i64 %29
  %31 = load i32, i32* %30, align 4
  %32 = load i32, i32* %3, align 4
  %33 = sub nsw i32 %32, 1
  %34 = sext i32 %33 to i64
  %35 = getelementptr inbounds [1000 x i32], [1000 x i32]* %6, i64 0, i64 %34
  %36 = load i32, i32* %35, align 4
  %37 = icmp slt i32 %31, %36
  br label %38

38:                                               ; preds = %27, %24
  %39 = phi i1 [ false, %24 ], [ %37, %27 ]
  br i1 %39, label %40, label %51

40:                                               ; preds = %38
  %41 = load i32, i32* %3, align 4
  %42 = sext i32 %41 to i64
  %43 = getelementptr inbounds [1000 x i32], [1000 x i32]* %6, i64 0, i64 %42
  %44 = load i32, i32* %3, align 4
  %45 = sub nsw i32 %44, 1
  %46 = sext i32 %45 to i64
  %47 = getelementptr inbounds [1000 x i32], [1000 x i32]* %6, i64 0, i64 %46
  call void @swap(i32* %43, i32* %47)
  br label %48

48:                                               ; preds = %40
  %49 = load i32, i32* %3, align 4
  %50 = add nsw i32 %49, -1
  store i32 %50, i32* %3, align 4
  br label %24

51:                                               ; preds = %38
  br label %91

52:                                               ; preds = %13
  store i32 0, i32* %7, align 4
  store i32 0, i32* %3, align 4
  br label %53

53:                                               ; preds = %73, %52
  %54 = load i32, i32* %3, align 4
  %55 = load i32, i32* %2, align 4
  %56 = icmp slt i32 %54, %55
  br i1 %56, label %57, label %76

57:                                               ; preds = %53
  %58 = getelementptr inbounds [1000 x i32], [1000 x i32]* %6, i64 0, i64 0
  %59 = load i32, i32* %3, align 4
  %60 = sext i32 %59 to i64
  %61 = getelementptr inbounds [1000 x i32], [1000 x i32]* %6, i64 0, i64 %60
  %62 = load i32, i32* %61, align 4
  %63 = mul nsw i32 2, %62
  %64 = load i32, i32* %3, align 4
  %65 = add nsw i32 %64, 1
  %66 = load i32, i32* %2, align 4
  %67 = call i32 @find(i32* %58, i32 %63, i32 %65, i32 %66)
  %68 = icmp ne i32 %67, 0
  br i1 %68, label %69, label %72

69:                                               ; preds = %57
  %70 = load i32, i32* %7, align 4
  %71 = add nsw i32 %70, 1
  store i32 %71, i32* %7, align 4
  br label %72

72:                                               ; preds = %69, %57
  br label %73

73:                                               ; preds = %72
  %74 = load i32, i32* %3, align 4
  %75 = add nsw i32 %74, 1
  store i32 %75, i32* %3, align 4
  br label %53

76:                                               ; preds = %53
  %77 = load i32, i32* %7, align 4
  %78 = call i32 (i8*, ...) @printf(i8* getelementptr inbounds ([4 x i8], [4 x i8]* @.str.1, i64 0, i64 0), i32 %77)
  store i32 0, i32* %3, align 4
  br label %79

79:                                               ; preds = %87, %76
  %80 = load i32, i32* %3, align 4
  %81 = load i32, i32* %2, align 4
  %82 = icmp slt i32 %80, %81
  br i1 %82, label %83, label %90

83:                                               ; preds = %79
  %84 = load i32, i32* %3, align 4
  %85 = sext i32 %84 to i64
  %86 = getelementptr inbounds [1000 x i32], [1000 x i32]* %6, i64 0, i64 %85
  store i32 0, i32* %86, align 4
  br label %87

87:                                               ; preds = %83
  %88 = load i32, i32* %3, align 4
  %89 = add nsw i32 %88, 1
  store i32 %89, i32* %3, align 4
  br label %79

90:                                               ; preds = %79
  store i32 0, i32* %2, align 4
  br label %91

91:                                               ; preds = %90, %51
  br label %9

92:                                               ; preds = %9
  ret i32 0
}

; Function Attrs: argmemonly nounwind willreturn
declare void @llvm.memset.p0i8.i64(i8* nocapture writeonly, i8, i64, i1 immarg) #1

declare dso_local i32 @__isoc99_scanf(i8*, ...) #2

declare dso_local i32 @printf(i8*, ...) #2


!llvm.module.flags = !{!0}
!llvm.ident = !{!1}

!0 = !{i32 1, !"wchar_size", i32 4}
!1 = !{!"clang version 10.0.0-4ubuntu1 "}
